target datalayout = "e-m:e-p270:32:32-p271:32:32-p272:64:64-i64:64-i128:128-f80:128-n8:16:32:64-S128"
target triple = "x86_64-pc-linux-gnu"

%struct.pointf_s = type { double, double }
%struct.bezier_path_t = type { ptr, i64, i64, i64 }

@stderr = external global ptr, align 8
@.str.2 = private unnamed_addr constant [20 x i8] c"realloc failed: %s\0A\00", align 1

; Function Attrs: inlinehint nounwind uwtable
define internal i32 @bezier_path_try_append(ptr noundef %0, double %1, double %2) #4 {
  %4 = alloca i32, align 4
  %5 = alloca %struct.pointf_s, align 8
  %6 = alloca ptr, align 8
  %7 = alloca i64, align 8
  %8 = alloca i32, align 4
  %9 = alloca ptr, align 8
  %10 = alloca i64, align 8
  %11 = alloca i64, align 8
  %12 = alloca i64, align 8
  %13 = getelementptr inbounds nuw { double, double }, ptr %5, i32 0, i32 0
  store double %1, ptr %13, align 8
  %14 = getelementptr inbounds nuw { double, double }, ptr %5, i32 0, i32 1
  store double %2, ptr %14, align 8
  store ptr %0, ptr %6, align 8, !tbaa !13
  %15 = load ptr, ptr %6, align 8, !tbaa !13
  %16 = getelementptr inbounds nuw %struct.bezier_path_t, ptr %15, i32 0, i32 2
  %17 = load i64, ptr %16, align 8, !tbaa !39
  %18 = load ptr, ptr %6, align 8, !tbaa !13
  %19 = getelementptr inbounds nuw %struct.bezier_path_t, ptr %18, i32 0, i32 3
  %20 = load i64, ptr %19, align 8, !tbaa !45
  %21 = icmp eq i64 %17, %20
  br i1 %21, label %22, label %116

22:                                               ; preds = %3
  call void @llvm.lifetime.start.p0(i64 8, ptr %7) #11
  %23 = load ptr, ptr %6, align 8, !tbaa !13
  %24 = getelementptr inbounds nuw %struct.bezier_path_t, ptr %23, i32 0, i32 3
  %25 = load i64, ptr %24, align 8, !tbaa !45
  %26 = icmp eq i64 %25, 0
  br i1 %26, label %27, label %28

27:                                               ; preds = %22
  br label %33

28:                                               ; preds = %22
  %29 = load ptr, ptr %6, align 8, !tbaa !13
  %30 = getelementptr inbounds nuw %struct.bezier_path_t, ptr %29, i32 0, i32 3
  %31 = load i64, ptr %30, align 8, !tbaa !45
  %32 = mul i64 %31, 2
  br label %33

33:                                               ; preds = %28, %27
  %34 = phi i64 [ 1, %27 ], [ %32, %28 ]
  store i64 %34, ptr %7, align 8, !tbaa !36
  %35 = load i64, ptr %7, align 8, !tbaa !36
  %36 = udiv i64 -1, %35
  %37 = icmp ult i64 %36, 16
  br i1 %37, label %38, label %39

38:                                               ; preds = %33
  store i32 34, ptr %4, align 4
  store i32 1, ptr %8, align 4
  br label %113

39:                                               ; preds = %33
  call void @llvm.lifetime.start.p0(i64 8, ptr %9) #11
  %40 = load ptr, ptr %6, align 8, !tbaa !13
  %41 = getelementptr inbounds nuw %struct.bezier_path_t, ptr %40, i32 0, i32 0
  %42 = load ptr, ptr %41, align 8, !tbaa !41
  %43 = load i64, ptr %7, align 8, !tbaa !36
  %44 = mul i64 %43, 16
  %45 = call ptr @realloc(ptr noundef %42, i64 noundef %44) #15
  store ptr %45, ptr %9, align 8, !tbaa !42
  %46 = load ptr, ptr %9, align 8, !tbaa !42
  %47 = icmp eq ptr %46, null
  br i1 %47, label %48, label %49

48:                                               ; preds = %39
  store i32 12, ptr %4, align 4
  store i32 1, ptr %8, align 4
  br label %112

49:                                               ; preds = %39
  %50 = load ptr, ptr %9, align 8, !tbaa !42
  %51 = load ptr, ptr %6, align 8, !tbaa !13
  %52 = getelementptr inbounds nuw %struct.bezier_path_t, ptr %51, i32 0, i32 3
  %53 = load i64, ptr %52, align 8, !tbaa !45
  %54 = getelementptr inbounds nuw %struct.pointf_s, ptr %50, i64 %53
  %55 = load i64, ptr %7, align 8, !tbaa !36
  %56 = load ptr, ptr %6, align 8, !tbaa !13
  %57 = getelementptr inbounds nuw %struct.bezier_path_t, ptr %56, i32 0, i32 3
  %58 = load i64, ptr %57, align 8, !tbaa !45
  %59 = sub i64 %55, %58
  %60 = mul i64 %59, 16
  call void @llvm.memset.p0.i64(ptr align 8 %54, i8 0, i64 %60, i1 false)
  br label %61

61:                                               ; preds = %49
  br label %62

62:                                               ; preds = %61
  br label %63

63:                                               ; preds = %62
  %64 = load ptr, ptr %6, align 8, !tbaa !13
  %65 = getelementptr inbounds nuw %struct.bezier_path_t, ptr %64, i32 0, i32 1
  %66 = load i64, ptr %65, align 8, !tbaa !46
  %67 = load ptr, ptr %6, align 8, !tbaa !13
  %68 = getelementptr inbounds nuw %struct.bezier_path_t, ptr %67, i32 0, i32 2
  %69 = load i64, ptr %68, align 8, !tbaa !39
  %70 = add i64 %66, %69
  %71 = load ptr, ptr %6, align 8, !tbaa !13
  %72 = getelementptr inbounds nuw %struct.bezier_path_t, ptr %71, i32 0, i32 3
  %73 = load i64, ptr %72, align 8, !tbaa !45
  %74 = icmp ugt i64 %70, %73
  br i1 %74, label %75, label %105

75:                                               ; preds = %63
  call void @llvm.lifetime.start.p0(i64 8, ptr %10) #11
  %76 = load ptr, ptr %6, align 8, !tbaa !13
  %77 = getelementptr inbounds nuw %struct.bezier_path_t, ptr %76, i32 0, i32 3
  %78 = load i64, ptr %77, align 8, !tbaa !45
  %79 = load ptr, ptr %6, align 8, !tbaa !13
  %80 = getelementptr inbounds nuw %struct.bezier_path_t, ptr %79, i32 0, i32 1
  %81 = load i64, ptr %80, align 8, !tbaa !46
  %82 = sub i64 %78, %81
  store i64 %82, ptr %10, align 8, !tbaa !36
  call void @llvm.lifetime.start.p0(i64 8, ptr %11) #11
  %83 = load i64, ptr %7, align 8, !tbaa !36
  %84 = load i64, ptr %10, align 8, !tbaa !36
  %85 = sub i64 %83, %84
  store i64 %85, ptr %11, align 8, !tbaa !36
  br label %86

86:                                               ; preds = %75
  br label %87

87:                                               ; preds = %86
  br label %88

88:                                               ; preds = %87
  %89 = load ptr, ptr %9, align 8, !tbaa !42
  %90 = load i64, ptr %11, align 8, !tbaa !36
  %91 = getelementptr inbounds nuw %struct.pointf_s, ptr %89, i64 %90
  %92 = load ptr, ptr %9, align 8, !tbaa !42
  %93 = load ptr, ptr %6, align 8, !tbaa !13
  %94 = getelementptr inbounds nuw %struct.bezier_path_t, ptr %93, i32 0, i32 1
  %95 = load i64, ptr %94, align 8, !tbaa !46
  %96 = getelementptr inbounds nuw %struct.pointf_s, ptr %92, i64 %95
  %97 = load i64, ptr %10, align 8, !tbaa !36
  %98 = mul i64 %97, 16
  call void @llvm.memmove.p0.p0.i64(ptr align 8 %91, ptr align 8 %96, i64 %98, i1 false)
  br label %99

99:                                               ; preds = %88
  br label %100

100:                                              ; preds = %99
  br label %101

101:                                              ; preds = %100
  %102 = load i64, ptr %11, align 8, !tbaa !36
  %103 = load ptr, ptr %6, align 8, !tbaa !13
  %104 = getelementptr inbounds nuw %struct.bezier_path_t, ptr %103, i32 0, i32 1
  store i64 %102, ptr %104, align 8, !tbaa !46
  call void @llvm.lifetime.end.p0(i64 8, ptr %11) #11
  call void @llvm.lifetime.end.p0(i64 8, ptr %10) #11
  br label %105

105:                                              ; preds = %101, %63
  %106 = load ptr, ptr %9, align 8, !tbaa !42
  %107 = load ptr, ptr %6, align 8, !tbaa !13
  %108 = getelementptr inbounds nuw %struct.bezier_path_t, ptr %107, i32 0, i32 0
  store ptr %106, ptr %108, align 8, !tbaa !41
  %109 = load i64, ptr %7, align 8, !tbaa !36
  %110 = load ptr, ptr %6, align 8, !tbaa !13
  %111 = getelementptr inbounds nuw %struct.bezier_path_t, ptr %110, i32 0, i32 3
  store i64 %109, ptr %111, align 8, !tbaa !45
  store i32 0, ptr %8, align 4
  br label %112

112:                                              ; preds = %105, %48
  call void @llvm.lifetime.end.p0(i64 8, ptr %9) #11
  br label %113

113:                                              ; preds = %112, %38
  call void @llvm.lifetime.end.p0(i64 8, ptr %7) #11
  %114 = load i32, ptr %8, align 4
  switch i32 %114, label %142 [
    i32 0, label %115
    i32 1, label %140
  ]

115:                                              ; preds = %113
  br label %116

116:                                              ; preds = %115, %3
  call void @llvm.lifetime.start.p0(i64 8, ptr %12) #11
  %117 = load ptr, ptr %6, align 8, !tbaa !13
  %118 = getelementptr inbounds nuw %struct.bezier_path_t, ptr %117, i32 0, i32 1
  %119 = load i64, ptr %118, align 8, !tbaa !46
  %120 = load ptr, ptr %6, align 8, !tbaa !13
  %121 = getelementptr inbounds nuw %struct.bezier_path_t, ptr %120, i32 0, i32 2
  %122 = load i64, ptr %121, align 8, !tbaa !39
  %123 = add i64 %119, %122
  %124 = load ptr, ptr %6, align 8, !tbaa !13
  %125 = getelementptr inbounds nuw %struct.bezier_path_t, ptr %124, i32 0, i32 3
  %126 = load i64, ptr %125, align 8, !tbaa !45
  %127 = urem i64 %123, %126
  store i64 %127, ptr %12, align 8, !tbaa !36
  br label %128

128:                                              ; preds = %116
  br label %129

129:                                              ; preds = %128
  br label %130

130:                                              ; preds = %129
  %131 = load ptr, ptr %6, align 8, !tbaa !13
  %132 = getelementptr inbounds nuw %struct.bezier_path_t, ptr %131, i32 0, i32 0
  %133 = load ptr, ptr %132, align 8, !tbaa !41
  %134 = load i64, ptr %12, align 8, !tbaa !36
  %135 = getelementptr inbounds nuw %struct.pointf_s, ptr %133, i64 %134
  call void @llvm.memcpy.p0.p0.i64(ptr align 8 %135, ptr align 8 %5, i64 16, i1 false), !tbaa.struct !47
  %136 = load ptr, ptr %6, align 8, !tbaa !13
  %137 = getelementptr inbounds nuw %struct.bezier_path_t, ptr %136, i32 0, i32 2
  %138 = load i64, ptr %137, align 8, !tbaa !39
  %139 = add i64 %138, 1
  store i64 %139, ptr %137, align 8, !tbaa !39
  store i32 0, ptr %4, align 4
  store i32 1, ptr %8, align 4
  call void @llvm.lifetime.end.p0(i64 8, ptr %12) #11
  br label %140

140:                                              ; preds = %130, %113
  %141 = load i32, ptr %4, align 4
  ret i32 %141

142:                                              ; preds = %113
  unreachable
}

; Function Attrs: inlinehint nounwind uwtable
define internal void @bezier_path_append(ptr noundef %0, double %1, double %2) #4 {
  %4 = alloca %struct.pointf_s, align 8
  %5 = alloca ptr, align 8
  %6 = alloca i32, align 4
  %7 = getelementptr inbounds nuw { double, double }, ptr %4, i32 0, i32 0
  store double %1, ptr %7, align 8
  %8 = getelementptr inbounds nuw { double, double }, ptr %4, i32 0, i32 1
  store double %2, ptr %8, align 8
  store ptr %0, ptr %5, align 8, !tbaa !13
  call void @llvm.lifetime.start.p0(i64 4, ptr %6) #11
  %9 = load ptr, ptr %5, align 8, !tbaa !13
  %10 = getelementptr inbounds nuw { double, double }, ptr %4, i32 0, i32 0
  %11 = load double, ptr %10, align 8
  %12 = getelementptr inbounds nuw { double, double }, ptr %4, i32 0, i32 1
  %13 = load double, ptr %12, align 8
  %14 = call i32 @bezier_path_try_append(ptr noundef %9, double %11, double %13)
  store i32 %14, ptr %6, align 4, !tbaa !19
  %15 = load i32, ptr %6, align 4, !tbaa !19
  %16 = icmp ne i32 %15, 0
  br i1 %16, label %17, label %22

17:                                               ; preds = %3
  %18 = load ptr, ptr @stderr, align 8, !tbaa !43
  %19 = load i32, ptr %6, align 4, !tbaa !19
  %20 = call ptr @strerror(i32 noundef %19) #11
  %21 = call i32 (ptr, ptr, ...) @fprintf(ptr noundef %18, ptr noundef @.str.2, ptr noundef %20) #11
  call void @graphviz_exit(i32 noundef 1) #12
  unreachable

22:                                               ; preds = %3
  call void @llvm.lifetime.end.p0(i64 4, ptr %6) #11
  ret void
}

; Function Attrs: nounwind uwtable
define internal void @curveTo(ptr noundef %0, double noundef %1, double noundef %2, double noundef %3, double noundef %4, double noundef %5, double noundef %6) #0 {
  %8 = alloca ptr, align 8
  %9 = alloca double, align 8
  %10 = alloca double, align 8
  %11 = alloca double, align 8
  %12 = alloca double, align 8
  %13 = alloca double, align 8
  %14 = alloca double, align 8
  %15 = alloca %struct.pointf_s, align 8
  %16 = alloca %struct.pointf_s, align 8
  %17 = alloca %struct.pointf_s, align 8
  store ptr %0, ptr %8, align 8, !tbaa !13
  store double %1, ptr %9, align 8, !tbaa !3
  store double %2, ptr %10, align 8, !tbaa !3
  store double %3, ptr %11, align 8, !tbaa !3
  store double %4, ptr %12, align 8, !tbaa !3
  store double %5, ptr %13, align 8, !tbaa !3
  store double %6, ptr %14, align 8, !tbaa !3
  %18 = load ptr, ptr %8, align 8, !tbaa !13
  %19 = getelementptr inbounds nuw %struct.pointf_s, ptr %15, i32 0, i32 0
  %20 = load double, ptr %9, align 8, !tbaa !3
  store double %20, ptr %19, align 8, !tbaa !7
  %21 = getelementptr inbounds nuw %struct.pointf_s, ptr %15, i32 0, i32 1
  %22 = load double, ptr %10, align 8, !tbaa !3
  store double %22, ptr %21, align 8, !tbaa !9
  %23 = getelementptr inbounds nuw { double, double }, ptr %15, i32 0, i32 0
  %24 = load double, ptr %23, align 8
  %25 = getelementptr inbounds nuw { double, double }, ptr %15, i32 0, i32 1
  %26 = load double, ptr %25, align 8
  call void @bezier_path_append(ptr noundef %18, double %24, double %26)
  %27 = load ptr, ptr %8, align 8, !tbaa !13
  %28 = getelementptr inbounds nuw %struct.pointf_s, ptr %16, i32 0, i32 0
  %29 = load double, ptr %11, align 8, !tbaa !3
  store double %29, ptr %28, align 8, !tbaa !7
  %30 = getelementptr inbounds nuw %struct.pointf_s, ptr %16, i32 0, i32 1
  %31 = load double, ptr %12, align 8, !tbaa !3
  store double %31, ptr %30, align 8, !tbaa !9
  %32 = getelementptr inbounds nuw { double, double }, ptr %16, i32 0, i32 0
  %33 = load double, ptr %32, align 8
  %34 = getelementptr inbounds nuw { double, double }, ptr %16, i32 0, i32 1
  %35 = load double, ptr %34, align 8
  call void @bezier_path_append(ptr noundef %27, double %33, double %35)
  %36 = load ptr, ptr %8, align 8, !tbaa !13
  %37 = getelementptr inbounds nuw %struct.pointf_s, ptr %17, i32 0, i32 0
  %38 = load double, ptr %13, align 8, !tbaa !3
  store double %38, ptr %37, align 8, !tbaa !7
  %39 = getelementptr inbounds nuw %struct.pointf_s, ptr %17, i32 0, i32 1
  %40 = load double, ptr %14, align 8, !tbaa !3
  store double %40, ptr %39, align 8, !tbaa !9
  %41 = getelementptr inbounds nuw { double, double }, ptr %17, i32 0, i32 0
  %42 = load double, ptr %41, align 8
  %43 = getelementptr inbounds nuw { double, double }, ptr %17, i32 0, i32 1
  %44 = load double, ptr %43, align 8
  call void @bezier_path_append(ptr noundef %36, double %42, double %44)
  ret void
}