; Function Attrs: nounwind uwtable
define internal fastcc void @curveTo(ptr noundef nonnull captures(none) %0, double noundef %1, double noundef %2, double noundef %3, double noundef %4, double noundef %5, double noundef %6) unnamed_addr #0 {
  %8 = getelementptr inbounds nuw i8, ptr %0, i64 16
  %9 = load i64, ptr %8, align 8, !tbaa !20
  %10 = getelementptr inbounds nuw i8, ptr %0, i64 24
  %11 = load i64, ptr %10, align 8, !tbaa !17
  %12 = icmp eq i64 %9, %11
  br i1 %12, label %13, label %._crit_edge.i.i

._crit_edge.i.i:                                  ; preds = %7
  %.phi.trans.insert.i.i = getelementptr inbounds nuw i8, ptr %0, i64 8
  %.pre.i.i = load i64, ptr %.phi.trans.insert.i.i, align 8, !tbaa !22
  %.pre45.i.i = load ptr, ptr %0, align 8, !tbaa !13
  br label %bezier_path_append.exit

13:                                               ; preds = %7
  %14 = icmp eq i64 %9, 0
  %15 = shl i64 %9, 1
  %spec.select.i.i = select i1 %14, i64 1, i64 %15
  %mul.ov.i.i = icmp ugt i64 %spec.select.i.i, 1152921504606846975
  br i1 %mul.ov.i.i, label %39, label %16

16:                                               ; preds = %13
  %17 = load ptr, ptr %0, align 8, !tbaa !13
  %18 = shl nuw i64 %spec.select.i.i, 4
  %19 = tail call ptr @realloc(ptr noundef %17, i64 noundef %18) #16
  %20 = icmp eq ptr %19, null
  br i1 %20, label %39, label %21

21:                                               ; preds = %16
  %22 = load i64, ptr %10, align 8, !tbaa !17
  %23 = getelementptr inbounds nuw %struct.pointf_s, ptr %19, i64 %22
  %24 = sub i64 %spec.select.i.i, %22
  %25 = shl i64 %24, 4
  tail call void @llvm.memset.p0.i64(ptr nonnull align 8 %23, i8 0, i64 %25, i1 false)
  %26 = getelementptr inbounds nuw i8, ptr %0, i64 8
  %27 = load i64, ptr %26, align 8, !tbaa !22
  %28 = load i64, ptr %8, align 8, !tbaa !20
  %29 = add i64 %28, %27
  %30 = icmp ugt i64 %29, %22
  br i1 %30, label %31, label %37

31:                                               ; preds = %21
  %32 = sub i64 %22, %27
  %33 = sub i64 %spec.select.i.i, %32
  %34 = getelementptr inbounds nuw %struct.pointf_s, ptr %19, i64 %33
  %35 = getelementptr inbounds nuw %struct.pointf_s, ptr %19, i64 %27
  %36 = shl i64 %32, 4
  tail call void @llvm.memmove.p0.p0.i64(ptr nonnull align 8 %34, ptr nonnull align 8 %35, i64 %36, i1 false)
  store i64 %33, ptr %26, align 8, !tbaa !22
  br label %37

37:                                               ; preds = %31, %21
  %38 = phi i64 [ %27, %21 ], [ %33, %31 ]
  store ptr %19, ptr %0, align 8, !tbaa !13
  store i64 %spec.select.i.i, ptr %10, align 8, !tbaa !17
  br label %bezier_path_append.exit

39:                                               ; preds = %16, %13
  %.2.i.ph.i = phi i32 [ 34, %13 ], [ 12, %16 ]
  %40 = load ptr, ptr @stderr, align 8, !tbaa !7
  %41 = tail call ptr @strerror(i32 noundef %.2.i.ph.i) #12
  %42 = tail call i32 (ptr, ptr, ...) @fprintf(ptr noundef %40, ptr noundef nonnull @.str.2, ptr noundef %41) #14
  tail call fastcc void @graphviz_exit() #15
  unreachable

bezier_path_append.exit:                          ; preds = %._crit_edge.i.i, %37
  %43 = phi ptr [ %.pre45.i.i, %._crit_edge.i.i ], [ %19, %37 ]
  %44 = phi i64 [ %11, %._crit_edge.i.i ], [ %spec.select.i.i, %37 ]
  %45 = phi i64 [ %9, %._crit_edge.i.i ], [ %28, %37 ]
  %.pre.i.i15 = phi i64 [ %.pre.i.i, %._crit_edge.i.i ], [ %38, %37 ]
  %46 = add i64 %.pre.i.i15, %45
  %47 = urem i64 %46, %44
  %48 = getelementptr inbounds nuw %struct.pointf_s, ptr %43, i64 %47
  store double %1, ptr %48, align 8, !tbaa !18
  %.sroa.2.0..sroa_idx.i.i = getelementptr inbounds nuw i8, ptr %48, i64 8
  store double %2, ptr %.sroa.2.0..sroa_idx.i.i, align 8, !tbaa !18
  %49 = add i64 %45, 1
  store i64 %49, ptr %8, align 8, !tbaa !20
  %50 = icmp eq i64 %49, %44
  br i1 %50, label %51, label %bezier_path_append.exit21

51:                                               ; preds = %bezier_path_append.exit
  %52 = shl i64 %44, 1
  %mul.ov.i.i19 = icmp ugt i64 %52, 1152921504606846975
  br i1 %mul.ov.i.i19, label %75, label %53

53:                                               ; preds = %51
  %54 = shl i64 %44, 5
  %55 = tail call ptr @realloc(ptr noundef nonnull %43, i64 noundef %54) #16
  %56 = icmp eq ptr %55, null
  br i1 %56, label %75, label %57

57:                                               ; preds = %53
  %58 = load i64, ptr %10, align 8, !tbaa !17
  %59 = getelementptr inbounds nuw %struct.pointf_s, ptr %55, i64 %58
  %60 = sub i64 %52, %58
  %61 = shl i64 %60, 4
  tail call void @llvm.memset.p0.i64(ptr nonnull align 8 %59, i8 0, i64 %61, i1 false)
  %62 = getelementptr inbounds nuw i8, ptr %0, i64 8
  %63 = load i64, ptr %62, align 8, !tbaa !22
  %64 = load i64, ptr %8, align 8, !tbaa !20
  %65 = add i64 %64, %63
  %66 = icmp ugt i64 %65, %58
  br i1 %66, label %67, label %73

67:                                               ; preds = %57
  %68 = sub i64 %58, %63
  %69 = sub i64 %52, %68
  %70 = getelementptr inbounds nuw %struct.pointf_s, ptr %55, i64 %69
  %71 = getelementptr inbounds nuw %struct.pointf_s, ptr %55, i64 %63
  %72 = shl i64 %68, 4
  tail call void @llvm.memmove.p0.p0.i64(ptr nonnull align 8 %70, ptr nonnull align 8 %71, i64 %72, i1 false)
  store i64 %69, ptr %62, align 8, !tbaa !22
  br label %73

73:                                               ; preds = %67, %57
  %74 = phi i64 [ %63, %57 ], [ %69, %67 ]
  store ptr %55, ptr %0, align 8, !tbaa !13
  store i64 %52, ptr %10, align 8, !tbaa !17
  br label %bezier_path_append.exit21

75:                                               ; preds = %53, %51
  %.2.i.ph.i20 = phi i32 [ 34, %51 ], [ 12, %53 ]
  %76 = load ptr, ptr @stderr, align 8, !tbaa !7
  %77 = tail call ptr @strerror(i32 noundef %.2.i.ph.i20) #12
  %78 = tail call i32 (ptr, ptr, ...) @fprintf(ptr noundef %76, ptr noundef nonnull @.str.2, ptr noundef %77) #14
  tail call fastcc void @graphviz_exit() #15
  unreachable

bezier_path_append.exit21:                        ; preds = %bezier_path_append.exit, %73
  %79 = phi ptr [ %55, %73 ], [ %43, %bezier_path_append.exit ]
  %80 = phi i64 [ %52, %73 ], [ %44, %bezier_path_append.exit ]
  %81 = phi i64 [ %64, %73 ], [ %49, %bezier_path_append.exit ]
  %.pre.i.i24 = phi i64 [ %74, %73 ], [ %.pre.i.i15, %bezier_path_append.exit ]
  %82 = add i64 %.pre.i.i24, %81
  %83 = urem i64 %82, %80
  %84 = getelementptr inbounds nuw %struct.pointf_s, ptr %79, i64 %83
  store double %3, ptr %84, align 8, !tbaa !18
  %.sroa.2.0..sroa_idx.i.i17 = getelementptr inbounds nuw i8, ptr %84, i64 8
  store double %4, ptr %.sroa.2.0..sroa_idx.i.i17, align 8, !tbaa !18
  %85 = add i64 %81, 1
  store i64 %85, ptr %8, align 8, !tbaa !20
  %86 = icmp eq i64 %85, %80
  br i1 %86, label %87, label %bezier_path_append.exit30

87:                                               ; preds = %bezier_path_append.exit21
  %88 = shl i64 %80, 1
  %mul.ov.i.i28 = icmp ugt i64 %88, 1152921504606846975
  br i1 %mul.ov.i.i28, label %111, label %89

89:                                               ; preds = %87
  %90 = shl i64 %80, 5
  %91 = tail call ptr @realloc(ptr noundef nonnull %79, i64 noundef %90) #16
  %92 = icmp eq ptr %91, null
  br i1 %92, label %111, label %93

93:                                               ; preds = %89
  %94 = load i64, ptr %10, align 8, !tbaa !17
  %95 = getelementptr inbounds nuw %struct.pointf_s, ptr %91, i64 %94
  %96 = sub i64 %88, %94
  %97 = shl i64 %96, 4
  tail call void @llvm.memset.p0.i64(ptr nonnull align 8 %95, i8 0, i64 %97, i1 false)
  %98 = getelementptr inbounds nuw i8, ptr %0, i64 8
  %99 = load i64, ptr %98, align 8, !tbaa !22
  %100 = load i64, ptr %8, align 8, !tbaa !20
  %101 = add i64 %100, %99
  %102 = icmp ugt i64 %101, %94
  br i1 %102, label %103, label %109

103:                                              ; preds = %93
  %104 = sub i64 %94, %99
  %105 = sub i64 %88, %104
  %106 = getelementptr inbounds nuw %struct.pointf_s, ptr %91, i64 %105
  %107 = getelementptr inbounds nuw %struct.pointf_s, ptr %91, i64 %99
  %108 = shl i64 %104, 4
  tail call void @llvm.memmove.p0.p0.i64(ptr nonnull align 8 %106, ptr nonnull align 8 %107, i64 %108, i1 false)
  store i64 %105, ptr %98, align 8, !tbaa !22
  br label %109

109:                                              ; preds = %103, %93
  %110 = phi i64 [ %99, %93 ], [ %105, %103 ]
  store ptr %91, ptr %0, align 8, !tbaa !13
  store i64 %88, ptr %10, align 8, !tbaa !17
  br label %bezier_path_append.exit30

111:                                              ; preds = %89, %87
  %.2.i.ph.i29 = phi i32 [ 34, %87 ], [ 12, %89 ]
  %112 = load ptr, ptr @stderr, align 8, !tbaa !7
  %113 = tail call ptr @strerror(i32 noundef %.2.i.ph.i29) #12
  %114 = tail call i32 (ptr, ptr, ...) @fprintf(ptr noundef %112, ptr noundef nonnull @.str.2, ptr noundef %113) #14
  tail call fastcc void @graphviz_exit() #15
  unreachable

bezier_path_append.exit30:                        ; preds = %bezier_path_append.exit21, %109
  %115 = phi ptr [ %91, %109 ], [ %79, %bezier_path_append.exit21 ]
  %116 = phi i64 [ %88, %109 ], [ %80, %bezier_path_append.exit21 ]
  %117 = phi i64 [ %100, %109 ], [ %85, %bezier_path_append.exit21 ]
  %118 = phi i64 [ %110, %109 ], [ %.pre.i.i24, %bezier_path_append.exit21 ]
  %119 = add i64 %118, %117
  %120 = urem i64 %119, %116
  %121 = getelementptr inbounds nuw %struct.pointf_s, ptr %115, i64 %120
  store double %5, ptr %121, align 8, !tbaa !18
  %.sroa.2.0..sroa_idx.i.i26 = getelementptr inbounds nuw i8, ptr %121, i64 8
  store double %6, ptr %.sroa.2.0..sroa_idx.i.i26, align 8, !tbaa !18
  %122 = add i64 %117, 1
  store i64 %122, ptr %8, align 8, !tbaa !20
  ret void
}